; Function Attrs: nounwind uwtable
define hidden nonnull ptr @_ctypes_get_ffi_type(ptr noundef readonly captures(none) %0, ptr noundef %1) local_unnamed_addr #0 {
  %3 = icmp eq ptr %1, null
  br i1 %3, label %14, label %4

4:                                                ; preds = %2
  %5 = getelementptr inbounds nuw i8, ptr %0, i64 40
  %6 = load ptr, ptr %5, align 8, !tbaa !21
  %7 = tail call i32 @PyObject_IsInstance(ptr noundef nonnull %1, ptr noundef %6) #10
  %.not.i.i = icmp eq i32 %7, 0
  br i1 %.not.i.i, label %PyStgInfo_FromType.exit, label %8

8:                                                ; preds = %4
  %9 = load ptr, ptr %5, align 8, !tbaa !21
  %10 = tail call ptr @PyObject_GetTypeData(ptr noundef nonnull %1, ptr noundef %9) #10
  %11 = load i32, ptr %10, align 8, !tbaa !22
  %.not8.i.i = icmp eq i32 %11, 0
  %spec.select = select i1 %.not8.i.i, ptr null, ptr %10
  br label %PyStgInfo_FromType.exit

PyStgInfo_FromType.exit:                          ; preds = %8, %4
  %.06 = phi ptr [ null, %4 ], [ %spec.select, %8 ]
  %12 = icmp eq ptr %.06, null
  %13 = getelementptr inbounds nuw i8, ptr %.06, i64 32
  %.1 = select i1 %12, ptr @ffi_type_sint32, ptr %13
  br label %14

14:                                               ; preds = %2, %PyStgInfo_FromType.exit
  %.0 = phi ptr [ %.1, %PyStgInfo_FromType.exit ], [ @ffi_type_sint32, %2 ]
  ret ptr %.0
}